target datalayout = "e-m:e-p270:32:32-p271:32:32-p272:64:64-i64:64-i128:128-f80:128-n8:16:32:64-S128"
target triple = "x86_64-pc-linux-gnu"

%"class.sls::arith_plugin" = type { %"class.sls::plugin.base", %class.scoped_ptr, %class.scoped_ptr.0, %class.ref_vector }
%"class.sls::plugin.base" = type <{ ptr, ptr, ptr, i32 }>
%class.scoped_ptr = type { ptr }
%class.scoped_ptr.0 = type { ptr }
%class.ref_vector = type { %class.ref_vector_core }
%class.ref_vector_core = type { %class.ref_manager_wrapper, %class.ptr_vector }
%class.ref_manager_wrapper = type { ptr }
%class.ptr_vector = type { %class.vector }
%class.vector = type { ptr }
%"class.std::ios_base" = type { ptr, i64, i64, i32, i32, i32, ptr, %"struct.std::ios_base::_Words", [8 x %"struct.std::ios_base::_Words"], i32, ptr, %"class.std::locale" }
%"struct.std::ios_base::_Words" = type { ptr, i64 }
%"class.std::locale" = type { ptr }

@_ZTI18overflow_exception = linkonce_odr hidden constant { ptr, ptr, ptr } { ptr getelementptr inbounds (ptr, ptr @_ZTVN10__cxxabiv120__si_class_type_infoE, i64 2), ptr @_ZTS18overflow_exception, ptr @_ZTI12z3_exception }, comdat, align 8
@.str = private unnamed_addr constant [25 x i8] c"revert to bignum solver \00", align 1
@.str.2 = private unnamed_addr constant [2 x i8] c"\0A\00", align 1
@.str.4 = private unnamed_addr constant [19 x i8] c"is_fixed(e, value)\00", align 1

; Function Attrs: mustprogress uwtable
define linkonce_odr hidden void @_Z7deallocIN3sls10arith_baseI13checked_int64ILb1EEEEEvPT_(ptr noundef %0) #4 comdat {
  %2 = alloca ptr, align 8
  store ptr %0, ptr %2, align 8, !tbaa !18
  %3 = load ptr, ptr %2, align 8, !tbaa !18
  %4 = icmp eq ptr %3, null
  br i1 %4, label %5, label %6

5:                                                ; preds = %1
  br label %12

6:                                                ; preds = %1
  %7 = load ptr, ptr %2, align 8, !tbaa !18
  %8 = load ptr, ptr %7, align 8, !tbaa !10
  %9 = getelementptr inbounds ptr, ptr %8, i64 0
  %10 = load ptr, ptr %9, align 8
  call void %10(ptr noundef nonnull align 8 dereferenceable(672) %7) #3
  %11 = load ptr, ptr %2, align 8, !tbaa !18
  call void @_ZN6memory10deallocateEPv(ptr noundef %11)
  br label %12

12:                                               ; preds = %6, %5
  ret void
}

; Function Attrs: inlinehint mustprogress nounwind uwtable
define linkonce_odr noundef i32 @_ZStorSt12_Ios_IostateS_(i32 noundef %0, i32 noundef %1) #12 comdat {
  %3 = alloca i32, align 4
  %4 = alloca i32, align 4
  store i32 %0, ptr %3, align 4, !tbaa !101
  store i32 %1, ptr %4, align 4, !tbaa !101
  %5 = load i32, ptr %3, align 4, !tbaa !101
  %6 = load i32, ptr %4, align 4, !tbaa !101
  %7 = or i32 %5, %6
  ret i32 %7
}

; Function Attrs: mustprogress nounwind uwtable
define available_externally noundef i32 @_ZNKSt9basic_iosIcSt11char_traitsIcEE7rdstateEv(ptr noundef nonnull align 8 dereferenceable(264) %0) #5 align 2 {
  %2 = alloca ptr, align 8
  store ptr %0, ptr %2, align 8, !tbaa !99
  %3 = load ptr, ptr %2, align 8
  %4 = getelementptr inbounds nuw %"class.std::ios_base", ptr %3, i32 0, i32 5
  %5 = load i32, ptr %4, align 8, !tbaa !103
  ret i32 %5
}

; Function Attrs: mustprogress uwtable
define linkonce_odr hidden noundef nonnull align 8 dereferenceable(8) ptr @_ZN10scoped_ptrIN3sls10arith_baseI13checked_int64ILb1EEEEEaSEPS4_(ptr noundef nonnull align 8 dereferenceable(8) %0, ptr noundef %1) #4 comdat align 2 {
  %3 = alloca ptr, align 8
  %4 = alloca ptr, align 8
  store ptr %0, ptr %3, align 8, !tbaa !16
  store ptr %1, ptr %4, align 8, !tbaa !18
  %5 = load ptr, ptr %3, align 8
  %6 = getelementptr inbounds nuw %class.scoped_ptr, ptr %5, i32 0, i32 0
  %7 = load ptr, ptr %6, align 8, !tbaa !20
  %8 = load ptr, ptr %4, align 8, !tbaa !18
  %9 = icmp ne ptr %7, %8
  br i1 %9, label %10, label %15

10:                                               ; preds = %2
  %11 = getelementptr inbounds nuw %class.scoped_ptr, ptr %5, i32 0, i32 0
  %12 = load ptr, ptr %11, align 8, !tbaa !20
  call void @_Z7deallocIN3sls10arith_baseI13checked_int64ILb1EEEEEvPT_(ptr noundef %12)
  %13 = load ptr, ptr %4, align 8, !tbaa !18
  %14 = getelementptr inbounds nuw %class.scoped_ptr, ptr %5, i32 0, i32 0
  store ptr %13, ptr %14, align 8, !tbaa !20
  br label %15

15:                                               ; preds = %10, %2
  ret ptr %5
}

; Function Attrs: mustprogress nounwind uwtable
define linkonce_odr hidden noundef i64 @_ZNSt11char_traitsIcE6lengthEPKc(ptr noundef %0) #5 comdat align 2 {
  %2 = alloca ptr, align 8
  store ptr %0, ptr %2, align 8, !tbaa !74
  %3 = load ptr, ptr %2, align 8, !tbaa !74
  %4 = call i64 @strlen(ptr noundef %3) #3
  ret i64 %4
}

; Function Attrs: mustprogress uwtable
define available_externally void @_ZNSt9basic_iosIcSt11char_traitsIcEE8setstateESt12_Ios_Iostate(ptr noundef nonnull align 8 dereferenceable(264) %0, i32 noundef %1) #4 align 2 {
  %3 = alloca ptr, align 8
  %4 = alloca i32, align 4
  store ptr %0, ptr %3, align 8, !tbaa !99
  store i32 %1, ptr %4, align 4, !tbaa !101
  %5 = load ptr, ptr %3, align 8
  %6 = call noundef i32 @_ZNKSt9basic_iosIcSt11char_traitsIcEE7rdstateEv(ptr noundef nonnull align 8 dereferenceable(264) %5)
  %7 = load i32, ptr %4, align 4, !tbaa !101
  %8 = call noundef i32 @_ZStorSt12_Ios_IostateS_(i32 noundef %6, i32 noundef %7)
  call void @_ZNSt9basic_iosIcSt11char_traitsIcEE5clearESt12_Ios_Iostate(ptr noundef nonnull align 8 dereferenceable(264) %5, i32 noundef %8)
  ret void
}

; Function Attrs: mustprogress nounwind uwtable
define linkonce_odr hidden noundef ptr @_ZNK10scoped_ptrIN3sls10arith_baseI8rationalEEEptEv(ptr noundef nonnull align 8 dereferenceable(8) %0) #5 comdat align 2 {
  %2 = alloca ptr, align 8
  store ptr %0, ptr %2, align 8, !tbaa !22
  %3 = load ptr, ptr %2, align 8
  %4 = getelementptr inbounds nuw %class.scoped_ptr.0, ptr %3, i32 0, i32 0
  %5 = load ptr, ptr %4, align 8, !tbaa !26
  ret ptr %5
}

; Function Attrs: mustprogress uwtable
define hidden void @_ZN3sls12arith_plugin11init_backupEv(ptr noundef nonnull align 8 dereferenceable(64) %0) #4 align 2 {
  %2 = alloca ptr, align 8
  store ptr %0, ptr %2, align 8, !tbaa !3
  %3 = load ptr, ptr %2, align 8
  %4 = getelementptr inbounds nuw %"class.sls::arith_plugin", ptr %3, i32 0, i32 1
  %5 = call noundef nonnull align 8 dereferenceable(8) ptr @_ZN10scoped_ptrIN3sls10arith_baseI13checked_int64ILb1EEEEEaSEPS4_(ptr noundef nonnull align 8 dereferenceable(8) %4, ptr noundef null)
  ret void
}

; Function Attrs: inlinehint mustprogress uwtable
define available_externally noundef nonnull align 8 dereferenceable(8) ptr @_ZStlsISt11char_traitsIcEERSt13basic_ostreamIcT_ES5_PKc(ptr noundef nonnull align 8 dereferenceable(8) %0, ptr noundef %1) #8 {
  %3 = alloca ptr, align 8
  %4 = alloca ptr, align 8
  store ptr %0, ptr %3, align 8, !tbaa !72
  store ptr %1, ptr %4, align 8, !tbaa !74
  %5 = load ptr, ptr %4, align 8, !tbaa !74
  %6 = icmp ne ptr %5, null
  br i1 %6, label %13, label %7

7:                                                ; preds = %2
  %8 = load ptr, ptr %3, align 8, !tbaa !72
  %9 = load ptr, ptr %8, align 8, !tbaa !10
  %10 = getelementptr i8, ptr %9, i64 -24
  %11 = load i64, ptr %10, align 8
  %12 = getelementptr inbounds i8, ptr %8, i64 %11
  call void @_ZNSt9basic_iosIcSt11char_traitsIcEE8setstateESt12_Ios_Iostate(ptr noundef nonnull align 8 dereferenceable(264) %12, i32 noundef 1)
  br label %19

13:                                               ; preds = %2
  %14 = load ptr, ptr %3, align 8, !tbaa !72
  %15 = load ptr, ptr %4, align 8, !tbaa !74
  %16 = load ptr, ptr %4, align 8, !tbaa !74
  %17 = call noundef i64 @_ZNSt11char_traitsIcE6lengthEPKc(ptr noundef %16)
  %18 = call noundef nonnull align 8 dereferenceable(8) ptr @_ZSt16__ostream_insertIcSt11char_traitsIcEERSt13basic_ostreamIT_T0_ES6_PKS3_l(ptr noundef nonnull align 8 dereferenceable(8) %14, ptr noundef %15, i64 noundef %17)
  br label %19

19:                                               ; preds = %13, %7
  %20 = load ptr, ptr %3, align 8, !tbaa !72
  ret ptr %20
}

; Function Attrs: mustprogress nounwind uwtable
define linkonce_odr hidden noundef ptr @_ZNK10scoped_ptrIN3sls10arith_baseI13checked_int64ILb1EEEEEptEv(ptr noundef nonnull align 8 dereferenceable(8) %0) #5 comdat align 2 {
  %2 = alloca ptr, align 8
  store ptr %0, ptr %2, align 8, !tbaa !16
  %3 = load ptr, ptr %2, align 8
  %4 = getelementptr inbounds nuw %class.scoped_ptr, ptr %3, i32 0, i32 0
  %5 = load ptr, ptr %4, align 8, !tbaa !20
  ret ptr %5
}

; Function Attrs: mustprogress nounwind uwtable
define linkonce_odr hidden noundef zeroext i1 @_ZNK10scoped_ptrIN3sls10arith_baseI13checked_int64ILb1EEEEEcvbEv(ptr noundef nonnull align 8 dereferenceable(8) %0) #5 comdat align 2 {
  %2 = alloca ptr, align 8
  store ptr %0, ptr %2, align 8, !tbaa !16
  %3 = load ptr, ptr %2, align 8
  %4 = getelementptr inbounds nuw %class.scoped_ptr, ptr %3, i32 0, i32 0
  %5 = load ptr, ptr %4, align 8, !tbaa !20
  %6 = icmp ne ptr %5, null
  ret i1 %6
}

; Function Attrs: mustprogress uwtable
define hidden noundef zeroext i1 @_ZN3sls12arith_plugin8is_fixedEP4exprR7obj_refIS1_11ast_managerE(ptr noundef nonnull align 8 dereferenceable(64) %0, ptr noundef %1, ptr noundef nonnull align 8 dereferenceable(16) %2) unnamed_addr #4 align 2 personality ptr @__gxx_personality_v0 {
  %4 = alloca i1, align 1
  %5 = alloca ptr, align 8
  %6 = alloca ptr, align 8
  %7 = alloca ptr, align 8
  %8 = alloca ptr, align 8
  %9 = alloca i32, align 4
  %10 = alloca ptr, align 8
  store ptr %0, ptr %5, align 8, !tbaa !3
  store ptr %1, ptr %6, align 8, !tbaa !70
  store ptr %2, ptr %7, align 8, !tbaa !76
  %11 = load ptr, ptr %5, align 8
  %12 = getelementptr inbounds nuw %"class.sls::arith_plugin", ptr %11, i32 0, i32 1
  %13 = call noundef zeroext i1 @_ZNK10scoped_ptrIN3sls10arith_baseI13checked_int64ILb1EEEEEcvbEv(ptr noundef nonnull align 8 dereferenceable(8) %12)
  br i1 %13, label %14, label %71

14:                                               ; preds = %3
  %15 = getelementptr inbounds nuw %"class.sls::arith_plugin", ptr %11, i32 0, i32 1
  %16 = invoke noundef ptr @_ZNK10scoped_ptrIN3sls10arith_baseI13checked_int64ILb1EEEEEptEv(ptr noundef nonnull align 8 dereferenceable(8) %15)
          to label %17 unwind label %25

17:                                               ; preds = %14
  %18 = load ptr, ptr %6, align 8, !tbaa !70
  %19 = load ptr, ptr %7, align 8, !tbaa !76
  %20 = load ptr, ptr %16, align 8, !tbaa !10
  %21 = getelementptr inbounds ptr, ptr %20, i64 5
  %22 = load ptr, ptr %21, align 8
  %23 = invoke noundef zeroext i1 %22(ptr noundef nonnull align 8 dereferenceable(672) %16, ptr noundef %18, ptr noundef nonnull align 8 dereferenceable(16) %19)
          to label %24 unwind label %25

24:                                               ; preds = %17
  store i1 %23, ptr %4, align 1
  br label %80

25:                                               ; preds = %17, %14
  %26 = landingpad { ptr, i32 }
          catch ptr @_ZTI18overflow_exception
  %27 = extractvalue { ptr, i32 } %26, 0
  store ptr %27, ptr %8, align 8
  %28 = extractvalue { ptr, i32 } %26, 1
  store i32 %28, ptr %9, align 4
  br label %29

29:                                               ; preds = %25
  %30 = load i32, ptr %9, align 4
  %31 = call i32 @llvm.eh.typeid.for.p0(ptr @_ZTI18overflow_exception) #3
  %32 = icmp eq i32 %30, %31
  br i1 %32, label %33, label %82

33:                                               ; preds = %29
  call void @llvm.lifetime.start.p0(i64 8, ptr %10) #3
  %34 = load ptr, ptr %8, align 8
  %35 = call ptr @__cxa_begin_catch(ptr %34) #3
  store ptr %35, ptr %10, align 8
  %36 = invoke noundef i32 @_Z19get_verbosity_levelv()
          to label %37 unwind label %53

37:                                               ; preds = %33
  %38 = icmp uge i32 %36, 1
  br i1 %38, label %39, label %67

39:                                               ; preds = %37
  %40 = invoke noundef zeroext i1 @_Z11is_threadedv()
          to label %41 unwind label %53

41:                                               ; preds = %39
  br i1 %40, label %42, label %57

42:                                               ; preds = %41
  invoke void @_Z12verbose_lockv()
          to label %43 unwind label %53

43:                                               ; preds = %42
  %44 = invoke noundef nonnull align 8 dereferenceable(8) ptr @_Z14verbose_streamv()
          to label %45 unwind label %53

45:                                               ; preds = %43
  %46 = invoke noundef nonnull align 8 dereferenceable(8) ptr @_ZStlsISt11char_traitsIcEERSt13basic_ostreamIcT_ES5_PKc(ptr noundef nonnull align 8 dereferenceable(8) %44, ptr noundef @.str)
          to label %47 unwind label %53

47:                                               ; preds = %45
  %48 = invoke noundef nonnull align 8 dereferenceable(8) ptr @_ZStlsISt11char_traitsIcEERSt13basic_ostreamIcT_ES5_PKc(ptr noundef nonnull align 8 dereferenceable(8) %46, ptr noundef @.str.4)
          to label %49 unwind label %53

49:                                               ; preds = %47
  %50 = invoke noundef nonnull align 8 dereferenceable(8) ptr @_ZStlsISt11char_traitsIcEERSt13basic_ostreamIcT_ES5_PKc(ptr noundef nonnull align 8 dereferenceable(8) %48, ptr noundef @.str.2)
          to label %51 unwind label %53

51:                                               ; preds = %49
  invoke void @_Z14verbose_unlockv()
          to label %52 unwind label %53

52:                                               ; preds = %51
  br label %66

53:                                               ; preds = %67, %63, %61, %59, %57, %51, %49, %47, %45, %43, %42, %39, %33
  %54 = landingpad { ptr, i32 }
          cleanup
  %55 = extractvalue { ptr, i32 } %54, 0
  store ptr %55, ptr %8, align 8
  %56 = extractvalue { ptr, i32 } %54, 1
  store i32 %56, ptr %9, align 4
  invoke void @__cxa_end_catch()
          to label %70 unwind label %87

57:                                               ; preds = %41
  %58 = invoke noundef nonnull align 8 dereferenceable(8) ptr @_Z14verbose_streamv()
          to label %59 unwind label %53

59:                                               ; preds = %57
  %60 = invoke noundef nonnull align 8 dereferenceable(8) ptr @_ZStlsISt11char_traitsIcEERSt13basic_ostreamIcT_ES5_PKc(ptr noundef nonnull align 8 dereferenceable(8) %58, ptr noundef @.str)
          to label %61 unwind label %53

61:                                               ; preds = %59
  %62 = invoke noundef nonnull align 8 dereferenceable(8) ptr @_ZStlsISt11char_traitsIcEERSt13basic_ostreamIcT_ES5_PKc(ptr noundef nonnull align 8 dereferenceable(8) %60, ptr noundef @.str.4)
          to label %63 unwind label %53

63:                                               ; preds = %61
  %64 = invoke noundef nonnull align 8 dereferenceable(8) ptr @_ZStlsISt11char_traitsIcEERSt13basic_ostreamIcT_ES5_PKc(ptr noundef nonnull align 8 dereferenceable(8) %62, ptr noundef @.str.2)
          to label %65 unwind label %53

65:                                               ; preds = %63
  br label %66

66:                                               ; preds = %65, %52
  br label %67

67:                                               ; preds = %66, %37
  invoke void @_ZN3sls12arith_plugin11init_backupEv(ptr noundef nonnull align 8 dereferenceable(64) %11)
          to label %68 unwind label %53

68:                                               ; preds = %67
  call void @__cxa_end_catch()
  call void @llvm.lifetime.end.p0(i64 8, ptr %10) #3
  br label %69

69:                                               ; preds = %68
  br label %71

70:                                               ; preds = %53
  call void @llvm.lifetime.end.p0(i64 8, ptr %10) #3
  br label %82

71:                                               ; preds = %69, %3
  %72 = getelementptr inbounds nuw %"class.sls::arith_plugin", ptr %11, i32 0, i32 2
  %73 = call noundef ptr @_ZNK10scoped_ptrIN3sls10arith_baseI8rationalEEEptEv(ptr noundef nonnull align 8 dereferenceable(8) %72)
  %74 = load ptr, ptr %6, align 8, !tbaa !70
  %75 = load ptr, ptr %7, align 8, !tbaa !76
  %76 = load ptr, ptr %73, align 8, !tbaa !10
  %77 = getelementptr inbounds ptr, ptr %76, i64 5
  %78 = load ptr, ptr %77, align 8
  %79 = call noundef zeroext i1 %78(ptr noundef nonnull align 8 dereferenceable(792) %73, ptr noundef %74, ptr noundef nonnull align 8 dereferenceable(16) %75)
  store i1 %79, ptr %4, align 1
  br label %80

80:                                               ; preds = %71, %24
  %81 = load i1, ptr %4, align 1
  ret i1 %81

82:                                               ; preds = %70, %29
  %83 = load ptr, ptr %8, align 8
  %84 = load i32, ptr %9, align 4
  %85 = insertvalue { ptr, i32 } poison, ptr %83, 0
  %86 = insertvalue { ptr, i32 } %85, i32 %84, 1
  resume { ptr, i32 } %86

87:                                               ; preds = %53
  %88 = landingpad { ptr, i32 }
          catch ptr null
  %89 = extractvalue { ptr, i32 } %88, 0
  call void @__clang_call_terminate(ptr %89) #13
  unreachable
}