; Function Attrs: mustprogress uwtable
define hidden noundef zeroext i1 @_ZN3sls12arith_plugin8is_fixedEP4exprR7obj_refIS1_11ast_managerE(ptr noundef nonnull align 8 captures(none) dereferenceable(64) %0, ptr noundef %1, ptr noundef nonnull align 8 dereferenceable(16) %2) unnamed_addr #3 align 2 personality ptr @__gxx_personality_v0 {
  %4 = getelementptr inbounds nuw i8, ptr %0, i64 32
  %5 = load ptr, ptr %4, align 8, !tbaa !48
  %.not17 = icmp eq ptr %5, null
  br i1 %.not17, label %43, label %6

6:                                                ; preds = %3
  %7 = load ptr, ptr %5, align 8, !tbaa !3
  %8 = getelementptr inbounds nuw i8, ptr %7, i64 40
  %9 = load ptr, ptr %8, align 8
  %10 = invoke noundef zeroext i1 %9(ptr noundef nonnull align 8 dereferenceable(672) %5, ptr noundef %1, ptr noundef nonnull align 8 dereferenceable(16) %2)
          to label %50 unwind label %11

11:                                               ; preds = %6
  %12 = landingpad { ptr, i32 }
          catch ptr @_ZTI18overflow_exception
  %13 = extractvalue { ptr, i32 } %12, 1
  %14 = tail call i32 @llvm.eh.typeid.for.p0(ptr nonnull @_ZTI18overflow_exception) #11
  %15 = icmp eq i32 %13, %14
  br i1 %15, label %16, label %51

16:                                               ; preds = %11
  %17 = extractvalue { ptr, i32 } %12, 0
  %18 = tail call ptr @__cxa_begin_catch(ptr %17) #11
  %19 = invoke noundef i32 @_Z19get_verbosity_levelv()
          to label %20 unwind label %31

20:                                               ; preds = %16
  %.not = icmp eq i32 %19, 0
  br i1 %.not, label %_ZStlsISt11char_traitsIcEERSt13basic_ostreamIcT_ES5_PKc.exit16, label %21

21:                                               ; preds = %20
  %22 = invoke noundef zeroext i1 @_Z11is_threadedv()
          to label %23 unwind label %31

23:                                               ; preds = %21
  br i1 %22, label %24, label %33

24:                                               ; preds = %23
  invoke void @_Z12verbose_lockv()
          to label %25 unwind label %31

25:                                               ; preds = %24
  %26 = invoke noundef nonnull align 8 dereferenceable(8) ptr @_Z14verbose_streamv()
          to label %27 unwind label %31

27:                                               ; preds = %25
  %28 = invoke noundef nonnull align 8 dereferenceable(8) ptr @_ZSt16__ostream_insertIcSt11char_traitsIcEERSt13basic_ostreamIT_T0_ES6_PKS3_l(ptr noundef nonnull align 8 dereferenceable(8) %26, ptr noundef nonnull @.str, i64 noundef 24)
          to label %_ZStlsISt11char_traitsIcEERSt13basic_ostreamIcT_ES5_PKc.exit unwind label %31

_ZStlsISt11char_traitsIcEERSt13basic_ostreamIcT_ES5_PKc.exit: ; preds = %27
  %29 = invoke noundef nonnull align 8 dereferenceable(8) ptr @_ZSt16__ostream_insertIcSt11char_traitsIcEERSt13basic_ostreamIT_T0_ES6_PKS3_l(ptr noundef nonnull align 8 dereferenceable(8) %26, ptr noundef nonnull @.str.4, i64 noundef 18)
          to label %_ZStlsISt11char_traitsIcEERSt13basic_ostreamIcT_ES5_PKc.exit12 unwind label %31

_ZStlsISt11char_traitsIcEERSt13basic_ostreamIcT_ES5_PKc.exit12: ; preds = %_ZStlsISt11char_traitsIcEERSt13basic_ostreamIcT_ES5_PKc.exit
  %30 = invoke noundef nonnull align 8 dereferenceable(8) ptr @_ZSt16__ostream_insertIcSt11char_traitsIcEERSt13basic_ostreamIT_T0_ES6_PKS3_l(ptr noundef nonnull align 8 dereferenceable(8) %26, ptr noundef nonnull @.str.2, i64 noundef 1)
          to label %_ZStlsISt11char_traitsIcEERSt13basic_ostreamIcT_ES5_PKc.exit13 unwind label %31

_ZStlsISt11char_traitsIcEERSt13basic_ostreamIcT_ES5_PKc.exit13: ; preds = %_ZStlsISt11char_traitsIcEERSt13basic_ostreamIcT_ES5_PKc.exit12
  invoke void @_Z14verbose_unlockv()
          to label %_ZStlsISt11char_traitsIcEERSt13basic_ostreamIcT_ES5_PKc.exit16 unwind label %31

31:                                               ; preds = %40, %_ZStlsISt11char_traitsIcEERSt13basic_ostreamIcT_ES5_PKc.exit15, %_ZStlsISt11char_traitsIcEERSt13basic_ostreamIcT_ES5_PKc.exit14, %35, %_ZStlsISt11char_traitsIcEERSt13basic_ostreamIcT_ES5_PKc.exit12, %_ZStlsISt11char_traitsIcEERSt13basic_ostreamIcT_ES5_PKc.exit, %27, %33, %_ZStlsISt11char_traitsIcEERSt13basic_ostreamIcT_ES5_PKc.exit13, %25, %24, %21, %16
  %32 = landingpad { ptr, i32 }
          cleanup
  invoke void @__cxa_end_catch()
          to label %51 unwind label %52

33:                                               ; preds = %23
  %34 = invoke noundef nonnull align 8 dereferenceable(8) ptr @_Z14verbose_streamv()
          to label %35 unwind label %31

35:                                               ; preds = %33
  %36 = invoke noundef nonnull align 8 dereferenceable(8) ptr @_ZSt16__ostream_insertIcSt11char_traitsIcEERSt13basic_ostreamIT_T0_ES6_PKS3_l(ptr noundef nonnull align 8 dereferenceable(8) %34, ptr noundef nonnull @.str, i64 noundef 24)
          to label %_ZStlsISt11char_traitsIcEERSt13basic_ostreamIcT_ES5_PKc.exit14 unwind label %31

_ZStlsISt11char_traitsIcEERSt13basic_ostreamIcT_ES5_PKc.exit14: ; preds = %35
  %37 = invoke noundef nonnull align 8 dereferenceable(8) ptr @_ZSt16__ostream_insertIcSt11char_traitsIcEERSt13basic_ostreamIT_T0_ES6_PKS3_l(ptr noundef nonnull align 8 dereferenceable(8) %34, ptr noundef nonnull @.str.4, i64 noundef 18)
          to label %_ZStlsISt11char_traitsIcEERSt13basic_ostreamIcT_ES5_PKc.exit15 unwind label %31

_ZStlsISt11char_traitsIcEERSt13basic_ostreamIcT_ES5_PKc.exit15: ; preds = %_ZStlsISt11char_traitsIcEERSt13basic_ostreamIcT_ES5_PKc.exit14
  %38 = invoke noundef nonnull align 8 dereferenceable(8) ptr @_ZSt16__ostream_insertIcSt11char_traitsIcEERSt13basic_ostreamIT_T0_ES6_PKS3_l(ptr noundef nonnull align 8 dereferenceable(8) %34, ptr noundef nonnull @.str.2, i64 noundef 1)
          to label %_ZStlsISt11char_traitsIcEERSt13basic_ostreamIcT_ES5_PKc.exit16 unwind label %31

_ZStlsISt11char_traitsIcEERSt13basic_ostreamIcT_ES5_PKc.exit16: ; preds = %_ZStlsISt11char_traitsIcEERSt13basic_ostreamIcT_ES5_PKc.exit15, %_ZStlsISt11char_traitsIcEERSt13basic_ostreamIcT_ES5_PKc.exit13, %20
  %39 = load ptr, ptr %4, align 8, !tbaa !48
  %.not.i.i = icmp eq ptr %39, null
  br i1 %.not.i.i, label %_ZN3sls12arith_plugin11init_backupEv.exit, label %40

40:                                               ; preds = %_ZStlsISt11char_traitsIcEERSt13basic_ostreamIcT_ES5_PKc.exit16
  %41 = load ptr, ptr %39, align 8, !tbaa !3
  %42 = load ptr, ptr %41, align 8
  tail call void %42(ptr noundef nonnull align 8 dereferenceable(672) %39) #11
  invoke void @_ZN6memory10deallocateEPv(ptr noundef nonnull %39)
          to label %.noexc unwind label %31

.noexc:                                           ; preds = %40
  store ptr null, ptr %4, align 8, !tbaa !48
  br label %_ZN3sls12arith_plugin11init_backupEv.exit

_ZN3sls12arith_plugin11init_backupEv.exit:        ; preds = %.noexc, %_ZStlsISt11char_traitsIcEERSt13basic_ostreamIcT_ES5_PKc.exit16
  tail call void @__cxa_end_catch()
  br label %43

43:                                               ; preds = %_ZN3sls12arith_plugin11init_backupEv.exit, %3
  %44 = getelementptr inbounds nuw i8, ptr %0, i64 40
  %45 = load ptr, ptr %44, align 8, !tbaa !51
  %46 = load ptr, ptr %45, align 8, !tbaa !3
  %47 = getelementptr inbounds nuw i8, ptr %46, i64 40
  %48 = load ptr, ptr %47, align 8
  %49 = tail call noundef zeroext i1 %48(ptr noundef nonnull align 8 dereferenceable(792) %45, ptr noundef %1, ptr noundef nonnull align 8 dereferenceable(16) %2)
  br label %50

50:                                               ; preds = %6, %43
  %.0 = phi i1 [ %49, %43 ], [ %10, %6 ]
  ret i1 %.0

51:                                               ; preds = %31, %11
  %.merged = phi { ptr, i32 } [ %12, %11 ], [ %32, %31 ]
  resume { ptr, i32 } %.merged

52:                                               ; preds = %31
  %53 = landingpad { ptr, i32 }
          catch ptr null
  %54 = extractvalue { ptr, i32 } %53, 0
  tail call void @__clang_call_terminate(ptr %54) #12
  unreachable
}